target datalayout = "e-m:e-p270:32:32-p271:32:32-p272:64:64-i64:64-i128:128-f80:128-n8:16:32:64-S128"
target triple = "x86_64-unknown-linux-gnu"

%class.grobner = type <{ %struct.grobner_stats, ptr, ptr, %class.arith_util, %class.obj_map, %"struct.grobner::var_lt", %"struct.grobner::monomial_lt", %class.obj_hashtable, %class.obj_hashtable, %class.ptr_vector, %class.ptr_vector, i8, [7 x i8], ptr, %class.svector, %class.ptr_vector.3, %class.ptr_vector.3, %class.ptr_vector.5, %class.ptr_vector.5, i32, [4 x i8] }>
%struct.grobner_stats = type { i64, i64, i64, i64 }
%class.arith_util = type { ptr, ptr }
%class.obj_map = type { %class.core_hashtable }
%class.core_hashtable = type <{ ptr, i32, i32, i32, [4 x i8] }>
%"struct.grobner::var_lt" = type { ptr }
%"struct.grobner::monomial_lt" = type { ptr }
%class.obj_hashtable = type { %class.core_hashtable.base.1, [4 x i8] }
%class.core_hashtable.base.1 = type <{ ptr, i32, i32, i32 }>
%class.ptr_vector = type { %class.vector }
%class.vector = type { ptr }
%class.svector = type { %class.vector.2 }
%class.vector.2 = type { ptr }
%class.ptr_vector.3 = type { %class.vector.4 }
%class.vector.4 = type { ptr }
%class.ptr_vector.5 = type { %class.vector.6 }
%class.vector.6 = type { ptr }
%"class.grobner::equation" = type { i32, i32, %class.ptr_vector.3, ptr }
%"class.grobner::monomial" = type { %class.rational, %class.ptr_vector.5 }
%class.rational = type { %class.mpq }
%class.mpq = type { %class.mpz, %class.mpz }
%class.mpz = type { i32, i8, ptr }

; Function Attrs: mustprogress nounwind uwtable
define linkonce_odr hidden noundef i32 @_ZNK6vectorIP4exprLb0EjE4sizeEv(ptr noundef nonnull align 8 dereferenceable(8) %this) #5 comdat align 2 {
entry:
  %retval = alloca i32, align 4
  %this.addr = alloca ptr, align 8
  store ptr %this, ptr %this.addr, align 8
  %this1 = load ptr, ptr %this.addr, align 8
  %m_data = getelementptr inbounds %class.vector.6, ptr %this1, i32 0, i32 0
  %0 = load ptr, ptr %m_data, align 8
  %cmp = icmp eq ptr %0, null
  br i1 %cmp, label %if.then, label %if.end

if.then:                                          ; preds = %entry
  store i32 0, ptr %retval, align 4
  br label %return

if.end:                                           ; preds = %entry
  %m_data2 = getelementptr inbounds %class.vector.6, ptr %this1, i32 0, i32 0
  %1 = load ptr, ptr %m_data2, align 8
  %arrayidx = getelementptr inbounds i32, ptr %1, i64 -1
  %2 = load i32, ptr %arrayidx, align 4
  store i32 %2, ptr %retval, align 4
  br label %return

return:                                           ; preds = %if.end, %if.then
  %3 = load i32, ptr %retval, align 4
  ret i32 %3
}

; Function Attrs: mustprogress uwtable
define linkonce_odr hidden noundef i32 @_ZNK7grobner8monomial10get_degreeEv(ptr noundef nonnull align 8 dereferenceable(40) %this) #4 comdat align 2 {
entry:
  %this.addr = alloca ptr, align 8
  store ptr %this, ptr %this.addr, align 8
  %this1 = load ptr, ptr %this.addr, align 8
  %m_vars = getelementptr inbounds %"class.grobner::monomial", ptr %this1, i32 0, i32 1
  %call = call noundef i32 @_ZNK6vectorIP4exprLb0EjE4sizeEv(ptr noundef nonnull align 8 dereferenceable(8) %m_vars)
  ret i32 %call
}

; Function Attrs: mustprogress nounwind uwtable
define linkonce_odr hidden noundef nonnull align 8 dereferenceable(8) ptr @_ZN6vectorIPN7grobner8monomialELb0EjEixEj(ptr noundef nonnull align 8 dereferenceable(8) %this, i32 noundef %idx) #5 comdat align 2 {
entry:
  %this.addr = alloca ptr, align 8
  %idx.addr = alloca i32, align 4
  store ptr %this, ptr %this.addr, align 8
  store i32 %idx, ptr %idx.addr, align 4
  %this1 = load ptr, ptr %this.addr, align 8
  %m_data = getelementptr inbounds %class.vector.4, ptr %this1, i32 0, i32 0
  %0 = load ptr, ptr %m_data, align 8
  %1 = load i32, ptr %idx.addr, align 4
  %idxprom = zext i32 %1 to i64
  %arrayidx = getelementptr inbounds ptr, ptr %0, i64 %idxprom
  ret ptr %arrayidx
}

; Function Attrs: mustprogress nounwind uwtable
define linkonce_odr hidden noundef i32 @_ZNK6vectorIPN7grobner8monomialELb0EjE4sizeEv(ptr noundef nonnull align 8 dereferenceable(8) %this) #5 comdat align 2 {
entry:
  %retval = alloca i32, align 4
  %this.addr = alloca ptr, align 8
  store ptr %this, ptr %this.addr, align 8
  %this1 = load ptr, ptr %this.addr, align 8
  %m_data = getelementptr inbounds %class.vector.4, ptr %this1, i32 0, i32 0
  %0 = load ptr, ptr %m_data, align 8
  %cmp = icmp eq ptr %0, null
  br i1 %cmp, label %if.then, label %if.end

if.then:                                          ; preds = %entry
  store i32 0, ptr %retval, align 4
  br label %return

if.end:                                           ; preds = %entry
  %m_data2 = getelementptr inbounds %class.vector.4, ptr %this1, i32 0, i32 0
  %1 = load ptr, ptr %m_data2, align 8
  %arrayidx = getelementptr inbounds i32, ptr %1, i64 -1
  %2 = load i32, ptr %arrayidx, align 4
  store i32 %2, ptr %retval, align 4
  br label %return

return:                                           ; preds = %if.end, %if.then
  %3 = load i32, ptr %retval, align 4
  ret i32 %3
}

; Function Attrs: mustprogress uwtable
define linkonce_odr hidden noundef zeroext i1 @_ZNK7grobner15is_inconsistentEPNS_8equationE(ptr noundef nonnull align 8 dereferenceable(228) %this, ptr noundef %eq) #4 comdat align 2 {
entry:
  %this.addr = alloca ptr, align 8
  %eq.addr = alloca ptr, align 8
  store ptr %this, ptr %this.addr, align 8
  store ptr %eq, ptr %eq.addr, align 8
  %0 = load ptr, ptr %eq.addr, align 8
  %m_monomials = getelementptr inbounds %"class.grobner::equation", ptr %0, i32 0, i32 2
  %call = call noundef i32 @_ZNK6vectorIPN7grobner8monomialELb0EjE4sizeEv(ptr noundef nonnull align 8 dereferenceable(8) %m_monomials)
  %cmp = icmp eq i32 %call, 1
  br i1 %cmp, label %land.rhs, label %land.end

land.rhs:                                         ; preds = %entry
  %1 = load ptr, ptr %eq.addr, align 8
  %m_monomials2 = getelementptr inbounds %"class.grobner::equation", ptr %1, i32 0, i32 2
  %call3 = call noundef nonnull align 8 dereferenceable(8) ptr @_ZN6vectorIPN7grobner8monomialELb0EjEixEj(ptr noundef nonnull align 8 dereferenceable(8) %m_monomials2, i32 noundef 0)
  %2 = load ptr, ptr %call3, align 8
  %call4 = call noundef i32 @_ZNK7grobner8monomial10get_degreeEv(ptr noundef nonnull align 8 dereferenceable(40) %2)
  %cmp5 = icmp eq i32 %call4, 0
  br label %land.end

land.end:                                         ; preds = %land.rhs, %entry
  %3 = phi i1 [ false, %entry ], [ %cmp5, %land.rhs ]
  ret i1 %3
}

; Function Attrs: mustprogress uwtable
define hidden void @_ZN7grobner8simplifyEPNS_8equationE(ptr noundef nonnull align 8 dereferenceable(228) %this, ptr noundef %eq) #4 align 2 {
entry:
  %this.addr = alloca ptr, align 8
  %eq.addr = alloca ptr, align 8
  store ptr %this, ptr %this.addr, align 8
  store ptr %eq, ptr %eq.addr, align 8
  %this1 = load ptr, ptr %this.addr, align 8
  %0 = load ptr, ptr %eq.addr, align 8
  %m_monomials = getelementptr inbounds %"class.grobner::equation", ptr %0, i32 0, i32 2
  call void @_ZN7grobner8simplifyER10ptr_vectorINS_8monomialEE(ptr noundef nonnull align 8 dereferenceable(228) %this1, ptr noundef nonnull align 8 dereferenceable(8) %m_monomials)
  %1 = load ptr, ptr %eq.addr, align 8
  %call = call noundef zeroext i1 @_ZNK7grobner15is_inconsistentEPNS_8equationE(ptr noundef nonnull align 8 dereferenceable(228) %this1, ptr noundef %1)
  br i1 %call, label %land.lhs.true, label %if.end

land.lhs.true:                                    ; preds = %entry
  %m_unsat = getelementptr inbounds %class.grobner, ptr %this1, i32 0, i32 13
  %2 = load ptr, ptr %m_unsat, align 8
  %tobool = icmp ne ptr %2, null
  br i1 %tobool, label %if.end, label %if.then

if.then:                                          ; preds = %land.lhs.true
  %3 = load ptr, ptr %eq.addr, align 8
  %m_unsat2 = getelementptr inbounds %class.grobner, ptr %this1, i32 0, i32 13
  store ptr %3, ptr %m_unsat2, align 8
  br label %if.end

if.end:                                           ; preds = %if.then, %land.lhs.true, %entry
  ret void
}