; Function Attrs: mustprogress uwtable
define hidden void @_ZN7grobner8simplifyEPNS_8equationE(ptr noundef nonnull align 8 dereferenceable(228) %this, ptr noundef %eq) local_unnamed_addr #3 align 2 {
entry:
  %m_monomials = getelementptr inbounds i8, ptr %eq, i64 8
  tail call void @_ZN7grobner8simplifyER10ptr_vectorINS_8monomialEE(ptr noundef nonnull align 8 dereferenceable(228) %this, ptr noundef nonnull align 8 dereferenceable(8) %m_monomials)
  %0 = load ptr, ptr %m_monomials, align 8
  %cmp.i.i = icmp eq ptr %0, null
  br i1 %cmp.i.i, label %if.end, label %_ZNK6vectorIPN7grobner8monomialELb0EjE4sizeEv.exit.i

_ZNK6vectorIPN7grobner8monomialELb0EjE4sizeEv.exit.i: ; preds = %entry
  %arrayidx.i.i = getelementptr inbounds i8, ptr %0, i64 -4
  %1 = load i32, ptr %arrayidx.i.i, align 4
  %cmp.i = icmp eq i32 %1, 1
  br i1 %cmp.i, label %land.rhs.i, label %if.end

land.rhs.i:                                       ; preds = %_ZNK6vectorIPN7grobner8monomialELb0EjE4sizeEv.exit.i
  %2 = load ptr, ptr %0, align 8
  %m_vars.i.i = getelementptr inbounds i8, ptr %2, i64 32
  %3 = load ptr, ptr %m_vars.i.i, align 8
  %cmp.i.i.i = icmp eq ptr %3, null
  br i1 %cmp.i.i.i, label %land.lhs.true, label %_ZNK7grobner15is_inconsistentEPNS_8equationE.exit

_ZNK7grobner15is_inconsistentEPNS_8equationE.exit: ; preds = %land.rhs.i
  %arrayidx.i.i.i = getelementptr inbounds i8, ptr %3, i64 -4
  %4 = load i32, ptr %arrayidx.i.i.i, align 4
  %5 = icmp eq i32 %4, 0
  br i1 %5, label %land.lhs.true, label %if.end

land.lhs.true:                                    ; preds = %land.rhs.i, %_ZNK7grobner15is_inconsistentEPNS_8equationE.exit
  %m_unsat = getelementptr inbounds i8, ptr %this, i64 176
  %6 = load ptr, ptr %m_unsat, align 8
  %tobool.not = icmp eq ptr %6, null
  br i1 %tobool.not, label %if.then, label %if.end

if.then:                                          ; preds = %land.lhs.true
  store ptr %eq, ptr %m_unsat, align 8
  br label %if.end

if.end:                                           ; preds = %entry, %_ZNK6vectorIPN7grobner8monomialELb0EjE4sizeEv.exit.i, %if.then, %land.lhs.true, %_ZNK7grobner15is_inconsistentEPNS_8equationE.exit
  ret void
}